; Function Attrs: mustprogress uwtable
define hidden void @_ZN4cvc58internal6theory9Valuation13ensureLiteralENS0_12NodeTemplateILb0EEE(ptr dead_on_unwind noalias writable sret(%"class.cvc5::internal::NodeTemplate.67") align 8 %0, ptr noundef nonnull readonly align 8 captures(none) dereferenceable(8) %1, ptr noundef readonly captures(none) %2) local_unnamed_addr #4 align 2 personality ptr @__gxx_personality_v0 {
  %4 = alloca %"class.cvc5::internal::NodeTemplate", align 8
  %5 = load ptr, ptr %1, align 8, !tbaa !3
  %6 = getelementptr inbounds nuw i8, ptr %5, i64 16
  %7 = load ptr, ptr %6, align 8, !tbaa !9
  %8 = load ptr, ptr %2, align 8, !tbaa !142
  store ptr %8, ptr %4, align 8, !tbaa !142
  call void @_ZN4cvc58internal4prop10PropEngine13ensureLiteralENS0_12NodeTemplateILb0EEE(ptr dead_on_unwind writable sret(%"class.cvc5::internal::NodeTemplate.67") align 8 %0, ptr noundef nonnull align 8 dereferenceable(416) %7, ptr noundef nonnull %4)
  ret void
}